target datalayout = "e-m:e-p270:32:32-p271:32:32-p272:64:64-i64:64-i128:128-f80:128-n8:16:32:64-S128"
target triple = "x86_64-unknown-linux-gnu"

%struct.RAMBlock = type { %struct.rcu_head, ptr, ptr, ptr, i64, i64, i64, ptr, i32, [256 x i8], %struct.anon.2, %struct.anon.3, i32, i64, i64, ptr, ptr, ptr, i8, i64 }
%struct.rcu_head = type { ptr, ptr }
%struct.anon.2 = type { ptr, ptr }
%struct.anon.3 = type { ptr }
%struct.MemoryRegionSection = type { i128, ptr, ptr, i64, i64, i8, i8, i8 }
%struct.Object = type { ptr, ptr, ptr, i32, ptr }
%struct.MemoryRegion = type { %struct.Object, i8, i8, i8, i8, i8, i8, i8, i8, i8, i8, ptr, ptr, ptr, ptr, ptr, ptr, i32, i128, i64, ptr, i64, i8, i8, i8, i8, i8, ptr, i64, i32, %union.anon, %union.anon.8, %union.anon.9, ptr, i32, ptr, ptr, i8 }
%union.anon = type { %struct.QTailQLink }
%struct.QTailQLink = type { ptr, ptr }
%union.anon.8 = type { %struct.QTailQLink }
%union.anon.9 = type { %struct.QTailQLink }

@.str.29 = private unnamed_addr constant [7 x i8] c"r == a\00", align 1
@.str.30 = private unnamed_addr constant [100 x i8] c"/home/dtcxzyw/WorkSpace/Projects/compilers/llvm-opt-benchmark/bench/qemu/qemu/include/qemu/int128.h\00", align 1
@__PRETTY_FUNCTION__.int128_get64 = private unnamed_addr constant [30 x i8] c"uint64_t int128_get64(Int128)\00", align 1

; Function Attrs: nounwind sspstrong uwtable
define internal void @populate_read_range(ptr noundef %block, i64 noundef %offset, i64 noundef %size) #0 {
entry:
  %block.addr = alloca ptr, align 8
  %offset.addr = alloca i64, align 8
  %size.addr = alloca i64, align 8
  %end = alloca i64, align 8
  %tmp = alloca i8, align 1
  store ptr %block, ptr %block.addr, align 8
  store i64 %offset, ptr %offset.addr, align 8
  store i64 %size, ptr %size.addr, align 8
  %0 = load i64, ptr %offset.addr, align 8
  %1 = load i64, ptr %size.addr, align 8
  %add = add i64 %0, %1
  store i64 %add, ptr %end, align 8
  br label %for.cond

for.cond:                                         ; preds = %for.inc, %entry
  %2 = load i64, ptr %offset.addr, align 8
  %3 = load i64, ptr %end, align 8
  %cmp = icmp ult i64 %2, %3
  br i1 %cmp, label %for.body, label %for.end

for.body:                                         ; preds = %for.cond
  %4 = load ptr, ptr %block.addr, align 8
  %host = getelementptr inbounds %struct.RAMBlock, ptr %4, i32 0, i32 2
  %5 = load ptr, ptr %host, align 8
  %6 = load i64, ptr %offset.addr, align 8
  %add.ptr = getelementptr i8, ptr %5, i64 %6
  %7 = load i8, ptr %add.ptr, align 1
  store i8 %7, ptr %tmp, align 1
  %8 = load i8, ptr %tmp, align 1
  %9 = call i8 asm sideeffect "", "=r,0,~{dirflag},~{fpsr},~{flags}"(i8 %8) #13, !srcloc !78
  store i8 %9, ptr %tmp, align 1
  br label %for.inc

for.inc:                                          ; preds = %for.body
  %10 = load ptr, ptr %block.addr, align 8
  %page_size = getelementptr inbounds %struct.RAMBlock, ptr %10, i32 0, i32 14
  %11 = load i64, ptr %page_size, align 8
  %12 = load i64, ptr %offset.addr, align 8
  %add1 = add i64 %12, %11
  store i64 %add1, ptr %offset.addr, align 8
  br label %for.cond, !llvm.loop !79

for.end:                                          ; preds = %for.cond
  ret void
}

; Function Attrs: nounwind sspstrong uwtable
define internal i64 @int128_get64(i64 noundef %a.coerce0, i64 noundef %a.coerce1) #0 {
entry:
  %a = alloca i128, align 16
  %a.addr = alloca i128, align 16
  %r = alloca i64, align 8
  %0 = getelementptr inbounds { i64, i64 }, ptr %a, i32 0, i32 0
  store i64 %a.coerce0, ptr %0, align 16
  %1 = getelementptr inbounds { i64, i64 }, ptr %a, i32 0, i32 1
  store i64 %a.coerce1, ptr %1, align 8
  %a1 = load i128, ptr %a, align 16
  store i128 %a1, ptr %a.addr, align 16
  %2 = load i128, ptr %a.addr, align 16
  %conv = trunc i128 %2 to i64
  store i64 %conv, ptr %r, align 8
  %3 = load i64, ptr %r, align 8
  %conv2 = zext i64 %3 to i128
  %4 = load i128, ptr %a.addr, align 16
  %cmp = icmp eq i128 %conv2, %4
  br i1 %cmp, label %if.then, label %if.else

if.then:                                          ; preds = %entry
  br label %if.end

if.else:                                          ; preds = %entry
  call void @__assert_fail(ptr noundef @.str.29, ptr noundef @.str.30, i32 noundef 33, ptr noundef @__PRETTY_FUNCTION__.int128_get64) #14
  unreachable

if.end:                                           ; preds = %if.then
  %5 = load i64, ptr %r, align 8
  ret i64 %5
}

; Function Attrs: nounwind sspstrong uwtable
define internal i32 @populate_read_section(ptr noundef %section, ptr noundef %opaque) #0 {
entry:
  %section.addr = alloca ptr, align 8
  %opaque.addr = alloca ptr, align 8
  %size = alloca i64, align 8
  %coerce = alloca i128, align 16
  %offset = alloca i64, align 8
  %block = alloca ptr, align 8
  store ptr %section, ptr %section.addr, align 8
  store ptr %opaque, ptr %opaque.addr, align 8
  %0 = load ptr, ptr %section.addr, align 8
  %size1 = getelementptr inbounds %struct.MemoryRegionSection, ptr %0, i32 0, i32 0
  %1 = load i128, ptr %size1, align 16
  store i128 %1, ptr %coerce, align 16
  %2 = getelementptr inbounds { i64, i64 }, ptr %coerce, i32 0, i32 0
  %3 = load i64, ptr %2, align 16
  %4 = getelementptr inbounds { i64, i64 }, ptr %coerce, i32 0, i32 1
  %5 = load i64, ptr %4, align 8
  %call = call i64 @int128_get64(i64 noundef %3, i64 noundef %5)
  store i64 %call, ptr %size, align 8
  %6 = load ptr, ptr %section.addr, align 8
  %offset_within_region = getelementptr inbounds %struct.MemoryRegionSection, ptr %6, i32 0, i32 3
  %7 = load i64, ptr %offset_within_region, align 16
  store i64 %7, ptr %offset, align 8
  %8 = load ptr, ptr %section.addr, align 8
  %mr = getelementptr inbounds %struct.MemoryRegionSection, ptr %8, i32 0, i32 1
  %9 = load ptr, ptr %mr, align 16
  %ram_block = getelementptr inbounds %struct.MemoryRegion, ptr %9, i32 0, i32 11
  %10 = load ptr, ptr %ram_block, align 8
  store ptr %10, ptr %block, align 8
  %11 = load ptr, ptr %block, align 8
  %12 = load i64, ptr %offset, align 8
  %13 = load i64, ptr %size, align 8
  call void @populate_read_range(ptr noundef %11, i64 noundef %12, i64 noundef %13)
  ret i32 0
}