; Function Attrs: nounwind sspstrong uwtable
define internal noundef i32 @populate_read_section(ptr noundef readonly captures(none) %section, ptr readnone captures(none) %opaque) #0 {
entry:
  %0 = load i128, ptr %section, align 16
  %cmp.i = icmp ult i128 %0, 18446744073709551616
  br i1 %cmp.i, label %int128_get64.exit, label %if.else.i

if.else.i:                                        ; preds = %entry
  tail call void @__assert_fail(ptr noundef nonnull @.str.29, ptr noundef nonnull @.str.30, i32 noundef 33, ptr noundef nonnull @__PRETTY_FUNCTION__.int128_get64) #19
  unreachable

int128_get64.exit:                                ; preds = %entry
  %coerce.sroa.0.0.extract.trunc = trunc nuw i128 %0 to i64
  %offset_within_region = getelementptr inbounds nuw i8, ptr %section, i64 32
  %1 = load i64, ptr %offset_within_region, align 16
  %add.i = add i64 %1, %coerce.sroa.0.0.extract.trunc
  %cmp5.i = icmp ult i64 %1, %add.i
  br i1 %cmp5.i, label %for.body.lr.ph.i, label %populate_read_range.exit

for.body.lr.ph.i:                                 ; preds = %int128_get64.exit
  %mr = getelementptr inbounds nuw i8, ptr %section, i64 16
  %2 = load ptr, ptr %mr, align 16
  %ram_block = getelementptr inbounds nuw i8, ptr %2, i64 56
  %3 = load ptr, ptr %ram_block, align 8
  %host.i = getelementptr inbounds nuw i8, ptr %3, i64 24
  %page_size.i = getelementptr inbounds nuw i8, ptr %3, i64 376
  br label %for.body.i

for.body.i:                                       ; preds = %for.body.i, %for.body.lr.ph.i
  %offset.addr.06.i = phi i64 [ %1, %for.body.lr.ph.i ], [ %add1.i, %for.body.i ]
  %4 = load ptr, ptr %host.i, align 8
  %add.ptr.i = getelementptr i8, ptr %4, i64 %offset.addr.06.i
  %5 = load i8, ptr %add.ptr.i, align 1
  %6 = tail call i8 asm sideeffect "", "=r,0,~{dirflag},~{fpsr},~{flags}"(i8 %5) #18, !srcloc !18
  %7 = load i64, ptr %page_size.i, align 8
  %add1.i = add i64 %7, %offset.addr.06.i
  %cmp.i3 = icmp ult i64 %add1.i, %add.i
  br i1 %cmp.i3, label %for.body.i, label %populate_read_range.exit, !llvm.loop !19

populate_read_range.exit:                         ; preds = %for.body.i, %int128_get64.exit
  ret i32 0
}